target datalayout = "e-m:e-p270:32:32-p271:32:32-p272:64:64-i64:64-i128:128-f80:128-n8:16:32:64-S128"
target triple = "x86_64-pc-linux-gnu"

%struct.expert_field = type { i32, i32 }
%struct._packet_info = type { ptr, ptr, i32, i32, %struct.nstime_t, %struct.nstime_t, %struct.nstime_t, i8, ptr, ptr, ptr, ptr, %struct._address, %struct._address, %struct._address, %struct._address, %struct._address, %struct._address, i32, ptr, i8, [3 x i8], %struct.anon, i32, i32, i32, i32, ptr, i8, ptr, ptr, i16, i16, i32, i32, i16, i32, i32, ptr, ptr, ptr, i8, i8, i16, i16, i16, i32, i16, i16, ptr, ptr, ptr, ptr, ptr, i32, i32 }
%struct.nstime_t = type { i64, i32 }
%struct._address = type { i32, i32, ptr, ptr }
%struct.anon = type { i8, [3 x i8] }

@ei_gsm_a_gm_extraneous_data = internal global %struct.expert_field zeroinitializer, align 4
@.str.1124 = private unnamed_addr constant [13 x i8] c" - Full Name\00", align 1
@.str.1125 = private unnamed_addr constant [14 x i8] c" - Short Name\00", align 1

; Function Attrs: null_pointer_is_valid sspstrong uwtable
define internal void @dtap_gmm_information(ptr noundef %0, ptr noundef %1, ptr noundef %2, i32 noundef %3, i32 noundef %4) #1 {
  %6 = alloca ptr, align 8
  %7 = alloca ptr, align 8
  %8 = alloca ptr, align 8
  %9 = alloca i32, align 4
  %10 = alloca i32, align 4
  %11 = alloca i32, align 4
  %12 = alloca i32, align 4
  %13 = alloca i32, align 4
  %14 = alloca i32, align 4
  store ptr %0, ptr %6, align 8
  store ptr %1, ptr %7, align 8
  store ptr %2, ptr %8, align 8
  store i32 %3, ptr %9, align 4
  store i32 %4, ptr %10, align 4
  call void @llvm.lifetime.start.p0(i64 4, ptr %11) #6
  call void @llvm.lifetime.start.p0(i64 4, ptr %12) #6
  call void @llvm.lifetime.start.p0(i64 4, ptr %13) #6
  %15 = load i32, ptr %9, align 4
  store i32 %15, ptr %11, align 4
  %16 = load i32, ptr %10, align 4
  store i32 %16, ptr %13, align 4
  %17 = load ptr, ptr %8, align 8
  %18 = getelementptr inbounds nuw %struct._packet_info, ptr %17, i32 0, i32 37
  store i32 0, ptr %18, align 4
  %19 = load i32, ptr %13, align 4
  %20 = icmp sle i32 %19, 0
  br i1 %20, label %21, label %22

21:                                               ; preds = %5
  store i32 1, ptr %14, align 4
  br label %152

22:                                               ; preds = %5
  %23 = load ptr, ptr %6, align 8
  %24 = load ptr, ptr %7, align 8
  %25 = load ptr, ptr %8, align 8
  %26 = load i32, ptr %11, align 4
  %27 = load i32, ptr %13, align 4
  %28 = call zeroext i16 @elem_tlv(ptr noundef %23, ptr noundef %24, ptr noundef %25, i8 noundef zeroext 67, i32 noundef 1, i32 noundef 8, i32 noundef %26, i32 noundef %27, ptr noundef @.str.1124)
  %29 = zext i16 %28 to i32
  store i32 %29, ptr %12, align 4
  %30 = icmp ugt i32 %29, 0
  br i1 %30, label %31, label %38

31:                                               ; preds = %22
  %32 = load i32, ptr %12, align 4
  %33 = load i32, ptr %11, align 4
  %34 = add i32 %33, %32
  store i32 %34, ptr %11, align 4
  %35 = load i32, ptr %12, align 4
  %36 = load i32, ptr %13, align 4
  %37 = sub i32 %36, %35
  store i32 %37, ptr %13, align 4
  br label %38

38:                                               ; preds = %31, %22
  %39 = load i32, ptr %13, align 4
  %40 = icmp sle i32 %39, 0
  br i1 %40, label %41, label %42

41:                                               ; preds = %38
  store i32 1, ptr %14, align 4
  br label %152

42:                                               ; preds = %38
  %43 = load ptr, ptr %6, align 8
  %44 = load ptr, ptr %7, align 8
  %45 = load ptr, ptr %8, align 8
  %46 = load i32, ptr %11, align 4
  %47 = load i32, ptr %13, align 4
  %48 = call zeroext i16 @elem_tlv(ptr noundef %43, ptr noundef %44, ptr noundef %45, i8 noundef zeroext 69, i32 noundef 1, i32 noundef 8, i32 noundef %46, i32 noundef %47, ptr noundef @.str.1125)
  %49 = zext i16 %48 to i32
  store i32 %49, ptr %12, align 4
  %50 = icmp ugt i32 %49, 0
  br i1 %50, label %51, label %58

51:                                               ; preds = %42
  %52 = load i32, ptr %12, align 4
  %53 = load i32, ptr %11, align 4
  %54 = add i32 %53, %52
  store i32 %54, ptr %11, align 4
  %55 = load i32, ptr %12, align 4
  %56 = load i32, ptr %13, align 4
  %57 = sub i32 %56, %55
  store i32 %57, ptr %13, align 4
  br label %58

58:                                               ; preds = %51, %42
  %59 = load i32, ptr %13, align 4
  %60 = icmp sle i32 %59, 0
  br i1 %60, label %61, label %62

61:                                               ; preds = %58
  store i32 1, ptr %14, align 4
  br label %152

62:                                               ; preds = %58
  %63 = load ptr, ptr %6, align 8
  %64 = load ptr, ptr %7, align 8
  %65 = load ptr, ptr %8, align 8
  %66 = load i32, ptr %11, align 4
  %67 = call zeroext i16 @elem_tv(ptr noundef %63, ptr noundef %64, ptr noundef %65, i8 noundef zeroext 70, i32 noundef 1, i32 noundef 11, i32 noundef %66, ptr noundef null)
  %68 = zext i16 %67 to i32
  store i32 %68, ptr %12, align 4
  %69 = icmp ugt i32 %68, 0
  br i1 %69, label %70, label %77

70:                                               ; preds = %62
  %71 = load i32, ptr %12, align 4
  %72 = load i32, ptr %11, align 4
  %73 = add i32 %72, %71
  store i32 %73, ptr %11, align 4
  %74 = load i32, ptr %12, align 4
  %75 = load i32, ptr %13, align 4
  %76 = sub i32 %75, %74
  store i32 %76, ptr %13, align 4
  br label %77

77:                                               ; preds = %70, %62
  %78 = load i32, ptr %13, align 4
  %79 = icmp sle i32 %78, 0
  br i1 %79, label %80, label %81

80:                                               ; preds = %77
  store i32 1, ptr %14, align 4
  br label %152

81:                                               ; preds = %77
  %82 = load ptr, ptr %6, align 8
  %83 = load ptr, ptr %7, align 8
  %84 = load ptr, ptr %8, align 8
  %85 = load i32, ptr %11, align 4
  %86 = call zeroext i16 @elem_tv(ptr noundef %82, ptr noundef %83, ptr noundef %84, i8 noundef zeroext 71, i32 noundef 1, i32 noundef 12, i32 noundef %85, ptr noundef null)
  %87 = zext i16 %86 to i32
  store i32 %87, ptr %12, align 4
  %88 = icmp ugt i32 %87, 0
  br i1 %88, label %89, label %96

89:                                               ; preds = %81
  %90 = load i32, ptr %12, align 4
  %91 = load i32, ptr %11, align 4
  %92 = add i32 %91, %90
  store i32 %92, ptr %11, align 4
  %93 = load i32, ptr %12, align 4
  %94 = load i32, ptr %13, align 4
  %95 = sub i32 %94, %93
  store i32 %95, ptr %13, align 4
  br label %96

96:                                               ; preds = %89, %81
  %97 = load i32, ptr %13, align 4
  %98 = icmp sle i32 %97, 0
  br i1 %98, label %99, label %100

99:                                               ; preds = %96
  store i32 1, ptr %14, align 4
  br label %152

100:                                              ; preds = %96
  %101 = load ptr, ptr %6, align 8
  %102 = load ptr, ptr %7, align 8
  %103 = load ptr, ptr %8, align 8
  %104 = load i32, ptr %11, align 4
  %105 = load i32, ptr %13, align 4
  %106 = call zeroext i16 @elem_tlv(ptr noundef %101, ptr noundef %102, ptr noundef %103, i8 noundef zeroext 72, i32 noundef 1, i32 noundef 14, i32 noundef %104, i32 noundef %105, ptr noundef null)
  %107 = zext i16 %106 to i32
  store i32 %107, ptr %12, align 4
  %108 = icmp ugt i32 %107, 0
  br i1 %108, label %109, label %116

109:                                              ; preds = %100
  %110 = load i32, ptr %12, align 4
  %111 = load i32, ptr %11, align 4
  %112 = add i32 %111, %110
  store i32 %112, ptr %11, align 4
  %113 = load i32, ptr %12, align 4
  %114 = load i32, ptr %13, align 4
  %115 = sub i32 %114, %113
  store i32 %115, ptr %13, align 4
  br label %116

116:                                              ; preds = %109, %100
  %117 = load i32, ptr %13, align 4
  %118 = icmp sle i32 %117, 0
  br i1 %118, label %119, label %120

119:                                              ; preds = %116
  store i32 1, ptr %14, align 4
  br label %152

120:                                              ; preds = %116
  %121 = load ptr, ptr %6, align 8
  %122 = load ptr, ptr %7, align 8
  %123 = load ptr, ptr %8, align 8
  %124 = load i32, ptr %11, align 4
  %125 = load i32, ptr %13, align 4
  %126 = call zeroext i16 @elem_tlv(ptr noundef %121, ptr noundef %122, ptr noundef %123, i8 noundef zeroext 73, i32 noundef 1, i32 noundef 15, i32 noundef %124, i32 noundef %125, ptr noundef null)
  %127 = zext i16 %126 to i32
  store i32 %127, ptr %12, align 4
  %128 = icmp ugt i32 %127, 0
  br i1 %128, label %129, label %136

129:                                              ; preds = %120
  %130 = load i32, ptr %12, align 4
  %131 = load i32, ptr %11, align 4
  %132 = add i32 %131, %130
  store i32 %132, ptr %11, align 4
  %133 = load i32, ptr %12, align 4
  %134 = load i32, ptr %13, align 4
  %135 = sub i32 %134, %133
  store i32 %135, ptr %13, align 4
  br label %136

136:                                              ; preds = %129, %120
  %137 = load i32, ptr %13, align 4
  %138 = icmp ugt i32 %137, 0
  br i1 %138, label %139, label %151

139:                                              ; preds = %136
  %140 = load ptr, ptr %7, align 8
  %141 = load ptr, ptr %8, align 8
  %142 = load ptr, ptr %6, align 8
  %143 = load i32, ptr %11, align 4
  %144 = load i32, ptr %13, align 4
  %145 = sub i32 %144, 0
  %146 = call ptr @proto_tree_add_expert(ptr noundef %140, ptr noundef %141, ptr noundef @ei_gsm_a_gm_extraneous_data, ptr noundef %142, i32 noundef %143, i32 noundef %145)
  %147 = load i32, ptr %13, align 4
  %148 = sub i32 %147, 0
  %149 = load i32, ptr %11, align 4
  %150 = add i32 %149, %148
  store i32 %150, ptr %11, align 4
  br label %151

151:                                              ; preds = %139, %136
  store i32 0, ptr %14, align 4
  br label %152

152:                                              ; preds = %151, %119, %99, %80, %61, %41, %21
  call void @llvm.lifetime.end.p0(i64 4, ptr %13) #6
  call void @llvm.lifetime.end.p0(i64 4, ptr %12) #6
  call void @llvm.lifetime.end.p0(i64 4, ptr %11) #6
  %153 = load i32, ptr %14, align 4
  switch i32 %153, label %155 [
    i32 0, label %154
    i32 1, label %154
  ]

154:                                              ; preds = %152, %152
  ret void

155:                                              ; preds = %152
  unreachable
}