; Function Attrs: null_pointer_is_valid sspstrong uwtable
define internal void @dtap_gmm_information(ptr noundef %0, ptr noundef %1, ptr noundef initializes((348, 352)) %2, i32 noundef %3, i32 noundef %4) #1 {
  %6 = getelementptr inbounds nuw i8, ptr %2, i64 348
  store i32 0, ptr %6, align 4
  %7 = icmp slt i32 %4, 1
  br i1 %7, label %45, label %8

8:                                                ; preds = %5
  %9 = tail call zeroext i16 @elem_tlv(ptr noundef %0, ptr noundef %1, ptr noundef %2, i8 noundef zeroext 67, i32 noundef 1, i32 noundef 8, i32 noundef %3, i32 noundef %4, ptr noundef nonnull @.str.1124)
  %10 = zext i16 %9 to i32
  %11 = sub nsw i32 %4, %10
  %12 = icmp slt i32 %11, 1
  br i1 %12, label %45, label %13

13:                                               ; preds = %8
  %14 = add i32 %3, %10
  %15 = tail call zeroext i16 @elem_tlv(ptr noundef %0, ptr noundef %1, ptr noundef %2, i8 noundef zeroext 69, i32 noundef 1, i32 noundef 8, i32 noundef %14, i32 noundef %11, ptr noundef nonnull @.str.1125)
  %16 = zext i16 %15 to i32
  %17 = sub nsw i32 %11, %16
  %18 = icmp slt i32 %17, 1
  br i1 %18, label %45, label %19

19:                                               ; preds = %13
  %20 = add i32 %14, %16
  %21 = tail call zeroext i16 @elem_tv(ptr noundef %0, ptr noundef %1, ptr noundef %2, i8 noundef zeroext 70, i32 noundef 1, i32 noundef 11, i32 noundef %20, ptr noundef null)
  %22 = zext i16 %21 to i32
  %23 = sub nsw i32 %17, %22
  %24 = icmp slt i32 %23, 1
  br i1 %24, label %45, label %25

25:                                               ; preds = %19
  %26 = add i32 %20, %22
  %27 = tail call zeroext i16 @elem_tv(ptr noundef %0, ptr noundef %1, ptr noundef %2, i8 noundef zeroext 71, i32 noundef 1, i32 noundef 12, i32 noundef %26, ptr noundef null)
  %28 = zext i16 %27 to i32
  %29 = sub nsw i32 %23, %28
  %30 = icmp slt i32 %29, 1
  br i1 %30, label %45, label %31

31:                                               ; preds = %25
  %32 = add i32 %26, %28
  %33 = tail call zeroext i16 @elem_tlv(ptr noundef %0, ptr noundef %1, ptr noundef %2, i8 noundef zeroext 72, i32 noundef 1, i32 noundef 14, i32 noundef %32, i32 noundef %29, ptr noundef null)
  %34 = zext i16 %33 to i32
  %35 = sub nsw i32 %29, %34
  %36 = icmp slt i32 %35, 1
  br i1 %36, label %45, label %37

37:                                               ; preds = %31
  %38 = add i32 %32, %34
  %39 = tail call zeroext i16 @elem_tlv(ptr noundef %0, ptr noundef %1, ptr noundef %2, i8 noundef zeroext 73, i32 noundef 1, i32 noundef 15, i32 noundef %38, i32 noundef %35, ptr noundef null)
  %40 = zext i16 %39 to i32
  %.not86 = icmp eq i32 %35, %40
  br i1 %.not86, label %45, label %41

41:                                               ; preds = %37
  %42 = sub nsw i32 %35, %40
  %43 = add i32 %38, %40
  %44 = tail call ptr @proto_tree_add_expert(ptr noundef %1, ptr noundef %2, ptr noundef nonnull @ei_gsm_a_gm_extraneous_data, ptr noundef %0, i32 noundef %43, i32 noundef %42)
  br label %45

45:                                               ; preds = %37, %41, %31, %25, %19, %13, %8, %5
  ret void
}